target datalayout = "e-m:e-p270:32:32-p271:32:32-p272:64:64-i64:64-i128:128-f80:128-n8:16:32:64-S128"
target triple = "x86_64-pc-linux-gnu"

%struct.expert_field = type { i32, i32 }

@ei_reload_truncated_field = internal global %struct.expert_field zeroinitializer, align 4
@hf_reload_sendupdate = internal global i32 0, align 4
@hf_reload_ufrag = internal global i32 0, align 4
@hf_reload_password = internal global i32 0, align 4
@hf_reload_role = internal global i32 0, align 4
@hf_reload_attachreqans = internal global i32 0, align 4
@ett_reload_attachreqans = internal global i32 0, align 4
@.str.659 = private unnamed_addr constant [24 x i8] c"Truncated attach_reqans\00", align 1

; Function Attrs: null_pointer_is_valid sspstrong uwtable
define internal i32 @dissect_opaque_string(ptr noundef %0, ptr noundef %1, ptr noundef %2, i32 noundef %3, i16 noundef zeroext %4, i16 noundef zeroext %5, i32 noundef %6) #0 {
  %8 = alloca ptr, align 8
  %9 = alloca ptr, align 8
  %10 = alloca ptr, align 8
  %11 = alloca i32, align 4
  %12 = alloca i16, align 2
  %13 = alloca i16, align 2
  %14 = alloca i32, align 4
  store ptr %0, ptr %8, align 8
  store ptr %1, ptr %9, align 8
  store ptr %2, ptr %10, align 8
  store i32 %3, ptr %11, align 4
  store i16 %4, ptr %12, align 2
  store i16 %5, ptr %13, align 2
  store i32 %6, ptr %14, align 4
  %15 = load ptr, ptr %8, align 8
  %16 = load ptr, ptr %9, align 8
  %17 = load ptr, ptr %10, align 8
  %18 = load i32, ptr %11, align 4
  %19 = load i16, ptr %12, align 2
  %20 = load i16, ptr %13, align 2
  %21 = load i32, ptr %14, align 4
  %22 = call i32 @dissect_opaque_string_or_data(ptr noundef %15, ptr noundef %16, ptr noundef %17, i32 noundef %18, i16 noundef zeroext %19, i16 noundef zeroext %20, i32 noundef %21, i1 noundef zeroext true)
  ret i32 %22
}

; Function Attrs: null_pointer_is_valid sspstrong uwtable
define internal i32 @dissect_attachreqans(ptr noundef %0, ptr noundef %1, ptr noundef %2, i16 noundef zeroext %3, i16 noundef zeroext %4) #0 {
  %6 = alloca i32, align 4
  %7 = alloca ptr, align 8
  %8 = alloca ptr, align 8
  %9 = alloca ptr, align 8
  %10 = alloca i16, align 2
  %11 = alloca i16, align 2
  %12 = alloca ptr, align 8
  %13 = alloca ptr, align 8
  %14 = alloca i8, align 1
  %15 = alloca i8, align 1
  %16 = alloca i8, align 1
  %17 = alloca i16, align 2
  %18 = alloca i16, align 2
  %19 = alloca i32, align 4
  store ptr %0, ptr %7, align 8
  store ptr %1, ptr %8, align 8
  store ptr %2, ptr %9, align 8
  store i16 %3, ptr %10, align 2
  store i16 %4, ptr %11, align 2
  call void @llvm.lifetime.start.p0(i64 8, ptr %12) #8
  call void @llvm.lifetime.start.p0(i64 8, ptr %13) #8
  call void @llvm.lifetime.start.p0(i64 1, ptr %14) #8
  call void @llvm.lifetime.start.p0(i64 1, ptr %15) #8
  call void @llvm.lifetime.start.p0(i64 1, ptr %16) #8
  call void @llvm.lifetime.start.p0(i64 2, ptr %17) #8
  call void @llvm.lifetime.start.p0(i64 2, ptr %18) #8
  store i16 0, ptr %18, align 2
  %20 = load ptr, ptr %7, align 8
  %21 = load i16, ptr %10, align 2
  %22 = zext i16 %21 to i32
  %23 = load i16, ptr %18, align 2
  %24 = zext i16 %23 to i32
  %25 = add i32 %22, %24
  %26 = call zeroext i8 @tvb_get_uint8(ptr noundef %20, i32 noundef %25)
  store i8 %26, ptr %14, align 1
  %27 = load i16, ptr %18, align 2
  %28 = zext i16 %27 to i32
  %29 = add i32 %28, 1
  %30 = trunc i32 %29 to i16
  store i16 %30, ptr %18, align 2
  %31 = load i16, ptr %18, align 2
  %32 = zext i16 %31 to i32
  %33 = load i8, ptr %14, align 1
  %34 = zext i8 %33 to i32
  %35 = add i32 %32, %34
  %36 = load i16, ptr %11, align 2
  %37 = zext i16 %36 to i32
  %38 = icmp sgt i32 %35, %37
  br i1 %38, label %39, label %53

39:                                               ; preds = %5
  %40 = load ptr, ptr %9, align 8
  %41 = load i32, ptr @hf_reload_attachreqans, align 4
  %42 = load ptr, ptr %7, align 8
  %43 = load i16, ptr %10, align 2
  %44 = zext i16 %43 to i32
  %45 = load i16, ptr %11, align 2
  %46 = zext i16 %45 to i32
  %47 = call ptr @proto_tree_add_item(ptr noundef %40, i32 noundef %41, ptr noundef %42, i32 noundef %44, i32 noundef %46, i32 noundef 0)
  store ptr %47, ptr %12, align 8
  %48 = load ptr, ptr %8, align 8
  %49 = load ptr, ptr %12, align 8
  %50 = call ptr (ptr, ptr, ptr, ptr, ...) @expert_add_info_format(ptr noundef %48, ptr noundef %49, ptr noundef @ei_reload_truncated_field, ptr noundef @.str.659)
  %51 = load i16, ptr %11, align 2
  %52 = zext i16 %51 to i32
  store i32 %52, ptr %6, align 4
  store i32 1, ptr %19, align 4
  br label %269

53:                                               ; preds = %5
  %54 = load i8, ptr %14, align 1
  %55 = zext i8 %54 to i32
  %56 = load i16, ptr %18, align 2
  %57 = zext i16 %56 to i32
  %58 = add i32 %57, %55
  %59 = trunc i32 %58 to i16
  store i16 %59, ptr %18, align 2
  %60 = load ptr, ptr %7, align 8
  %61 = load i16, ptr %10, align 2
  %62 = zext i16 %61 to i32
  %63 = load i16, ptr %18, align 2
  %64 = zext i16 %63 to i32
  %65 = add i32 %62, %64
  %66 = call zeroext i8 @tvb_get_uint8(ptr noundef %60, i32 noundef %65)
  store i8 %66, ptr %15, align 1
  %67 = load i16, ptr %18, align 2
  %68 = zext i16 %67 to i32
  %69 = add i32 %68, 1
  %70 = trunc i32 %69 to i16
  store i16 %70, ptr %18, align 2
  %71 = load i16, ptr %18, align 2
  %72 = zext i16 %71 to i32
  %73 = load i8, ptr %15, align 1
  %74 = zext i8 %73 to i32
  %75 = add i32 %72, %74
  %76 = load i16, ptr %11, align 2
  %77 = zext i16 %76 to i32
  %78 = icmp sgt i32 %75, %77
  br i1 %78, label %79, label %93

79:                                               ; preds = %53
  %80 = load ptr, ptr %9, align 8
  %81 = load i32, ptr @hf_reload_attachreqans, align 4
  %82 = load ptr, ptr %7, align 8
  %83 = load i16, ptr %10, align 2
  %84 = zext i16 %83 to i32
  %85 = load i16, ptr %11, align 2
  %86 = zext i16 %85 to i32
  %87 = call ptr @proto_tree_add_item(ptr noundef %80, i32 noundef %81, ptr noundef %82, i32 noundef %84, i32 noundef %86, i32 noundef 0)
  store ptr %87, ptr %12, align 8
  %88 = load ptr, ptr %8, align 8
  %89 = load ptr, ptr %12, align 8
  %90 = call ptr (ptr, ptr, ptr, ptr, ...) @expert_add_info_format(ptr noundef %88, ptr noundef %89, ptr noundef @ei_reload_truncated_field, ptr noundef @.str.659)
  %91 = load i16, ptr %11, align 2
  %92 = zext i16 %91 to i32
  store i32 %92, ptr %6, align 4
  store i32 1, ptr %19, align 4
  br label %269

93:                                               ; preds = %53
  %94 = load i8, ptr %15, align 1
  %95 = zext i8 %94 to i32
  %96 = load i16, ptr %18, align 2
  %97 = zext i16 %96 to i32
  %98 = add i32 %97, %95
  %99 = trunc i32 %98 to i16
  store i16 %99, ptr %18, align 2
  %100 = load ptr, ptr %7, align 8
  %101 = load i16, ptr %10, align 2
  %102 = zext i16 %101 to i32
  %103 = load i16, ptr %18, align 2
  %104 = zext i16 %103 to i32
  %105 = add i32 %102, %104
  %106 = call zeroext i8 @tvb_get_uint8(ptr noundef %100, i32 noundef %105)
  store i8 %106, ptr %16, align 1
  %107 = load i16, ptr %18, align 2
  %108 = zext i16 %107 to i32
  %109 = add i32 %108, 1
  %110 = trunc i32 %109 to i16
  store i16 %110, ptr %18, align 2
  %111 = load i16, ptr %18, align 2
  %112 = zext i16 %111 to i32
  %113 = load i8, ptr %16, align 1
  %114 = zext i8 %113 to i32
  %115 = add i32 %112, %114
  %116 = load i16, ptr %11, align 2
  %117 = zext i16 %116 to i32
  %118 = icmp sgt i32 %115, %117
  br i1 %118, label %119, label %133

119:                                              ; preds = %93
  %120 = load ptr, ptr %9, align 8
  %121 = load i32, ptr @hf_reload_attachreqans, align 4
  %122 = load ptr, ptr %7, align 8
  %123 = load i16, ptr %10, align 2
  %124 = zext i16 %123 to i32
  %125 = load i16, ptr %11, align 2
  %126 = zext i16 %125 to i32
  %127 = call ptr @proto_tree_add_item(ptr noundef %120, i32 noundef %121, ptr noundef %122, i32 noundef %124, i32 noundef %126, i32 noundef 0)
  store ptr %127, ptr %12, align 8
  %128 = load ptr, ptr %8, align 8
  %129 = load ptr, ptr %12, align 8
  %130 = call ptr (ptr, ptr, ptr, ptr, ...) @expert_add_info_format(ptr noundef %128, ptr noundef %129, ptr noundef @ei_reload_truncated_field, ptr noundef @.str.659)
  %131 = load i16, ptr %11, align 2
  %132 = zext i16 %131 to i32
  store i32 %132, ptr %6, align 4
  store i32 1, ptr %19, align 4
  br label %269

133:                                              ; preds = %93
  %134 = load i8, ptr %16, align 1
  %135 = zext i8 %134 to i32
  %136 = load i16, ptr %18, align 2
  %137 = zext i16 %136 to i32
  %138 = add i32 %137, %135
  %139 = trunc i32 %138 to i16
  store i16 %139, ptr %18, align 2
  %140 = load ptr, ptr %7, align 8
  %141 = load i16, ptr %10, align 2
  %142 = zext i16 %141 to i32
  %143 = load i16, ptr %18, align 2
  %144 = zext i16 %143 to i32
  %145 = add i32 %142, %144
  %146 = call zeroext i16 @tvb_get_ntohs(ptr noundef %140, i32 noundef %145)
  store i16 %146, ptr %17, align 2
  %147 = load i16, ptr %18, align 2
  %148 = zext i16 %147 to i32
  %149 = add i32 %148, 2
  %150 = trunc i32 %149 to i16
  store i16 %150, ptr %18, align 2
  %151 = load i16, ptr %18, align 2
  %152 = zext i16 %151 to i32
  %153 = load i16, ptr %17, align 2
  %154 = zext i16 %153 to i32
  %155 = add i32 %152, %154
  %156 = load i16, ptr %11, align 2
  %157 = zext i16 %156 to i32
  %158 = icmp sgt i32 %155, %157
  br i1 %158, label %159, label %173

159:                                              ; preds = %133
  %160 = load ptr, ptr %9, align 8
  %161 = load i32, ptr @hf_reload_attachreqans, align 4
  %162 = load ptr, ptr %7, align 8
  %163 = load i16, ptr %10, align 2
  %164 = zext i16 %163 to i32
  %165 = load i16, ptr %11, align 2
  %166 = zext i16 %165 to i32
  %167 = call ptr @proto_tree_add_item(ptr noundef %160, i32 noundef %161, ptr noundef %162, i32 noundef %164, i32 noundef %166, i32 noundef 0)
  store ptr %167, ptr %12, align 8
  %168 = load ptr, ptr %8, align 8
  %169 = load ptr, ptr %12, align 8
  %170 = call ptr (ptr, ptr, ptr, ptr, ...) @expert_add_info_format(ptr noundef %168, ptr noundef %169, ptr noundef @ei_reload_truncated_field, ptr noundef @.str.659)
  %171 = load i16, ptr %11, align 2
  %172 = zext i16 %171 to i32
  store i32 %172, ptr %6, align 4
  store i32 1, ptr %19, align 4
  br label %269

173:                                              ; preds = %133
  %174 = load i16, ptr %17, align 2
  %175 = zext i16 %174 to i32
  %176 = load i16, ptr %18, align 2
  %177 = zext i16 %176 to i32
  %178 = add i32 %177, %175
  %179 = trunc i32 %178 to i16
  store i16 %179, ptr %18, align 2
  %180 = load ptr, ptr %9, align 8
  %181 = load i32, ptr @hf_reload_attachreqans, align 4
  %182 = load ptr, ptr %7, align 8
  %183 = load i16, ptr %10, align 2
  %184 = zext i16 %183 to i32
  %185 = load i16, ptr %18, align 2
  %186 = zext i16 %185 to i32
  %187 = call ptr @proto_tree_add_item(ptr noundef %180, i32 noundef %181, ptr noundef %182, i32 noundef %184, i32 noundef %186, i32 noundef 0)
  store ptr %187, ptr %12, align 8
  %188 = load ptr, ptr %12, align 8
  %189 = load i32, ptr @ett_reload_attachreqans, align 4
  %190 = call ptr @proto_item_add_subtree(ptr noundef %188, i32 noundef %189)
  store ptr %190, ptr %13, align 8
  store i16 0, ptr %18, align 2
  %191 = load ptr, ptr %7, align 8
  %192 = load ptr, ptr %8, align 8
  %193 = load ptr, ptr %13, align 8
  %194 = load i32, ptr @hf_reload_ufrag, align 4
  %195 = load i16, ptr %10, align 2
  %196 = zext i16 %195 to i32
  %197 = load i16, ptr %18, align 2
  %198 = zext i16 %197 to i32
  %199 = add i32 %196, %198
  %200 = trunc i32 %199 to i16
  %201 = call i32 @dissect_opaque_string(ptr noundef %191, ptr noundef %192, ptr noundef %193, i32 noundef %194, i16 noundef zeroext %200, i16 noundef zeroext 1, i32 noundef -1)
  %202 = load i16, ptr %18, align 2
  %203 = zext i16 %202 to i32
  %204 = add i32 %203, %201
  %205 = trunc i32 %204 to i16
  store i16 %205, ptr %18, align 2
  %206 = load ptr, ptr %7, align 8
  %207 = load ptr, ptr %8, align 8
  %208 = load ptr, ptr %13, align 8
  %209 = load i32, ptr @hf_reload_password, align 4
  %210 = load i16, ptr %10, align 2
  %211 = zext i16 %210 to i32
  %212 = load i16, ptr %18, align 2
  %213 = zext i16 %212 to i32
  %214 = add i32 %211, %213
  %215 = trunc i32 %214 to i16
  %216 = call i32 @dissect_opaque_string(ptr noundef %206, ptr noundef %207, ptr noundef %208, i32 noundef %209, i16 noundef zeroext %215, i16 noundef zeroext 1, i32 noundef -1)
  %217 = load i16, ptr %18, align 2
  %218 = zext i16 %217 to i32
  %219 = add i32 %218, %216
  %220 = trunc i32 %219 to i16
  store i16 %220, ptr %18, align 2
  %221 = load ptr, ptr %7, align 8
  %222 = load ptr, ptr %8, align 8
  %223 = load ptr, ptr %13, align 8
  %224 = load i32, ptr @hf_reload_role, align 4
  %225 = load i16, ptr %10, align 2
  %226 = zext i16 %225 to i32
  %227 = load i16, ptr %18, align 2
  %228 = zext i16 %227 to i32
  %229 = add i32 %226, %228
  %230 = trunc i32 %229 to i16
  %231 = call i32 @dissect_opaque_string(ptr noundef %221, ptr noundef %222, ptr noundef %223, i32 noundef %224, i16 noundef zeroext %230, i16 noundef zeroext 1, i32 noundef -1)
  %232 = load i16, ptr %18, align 2
  %233 = zext i16 %232 to i32
  %234 = add i32 %233, %231
  %235 = trunc i32 %234 to i16
  store i16 %235, ptr %18, align 2
  %236 = load ptr, ptr %7, align 8
  %237 = load ptr, ptr %8, align 8
  %238 = load ptr, ptr %13, align 8
  %239 = load i16, ptr %10, align 2
  %240 = zext i16 %239 to i32
  %241 = load i16, ptr %18, align 2
  %242 = zext i16 %241 to i32
  %243 = add i32 %240, %242
  %244 = trunc i32 %243 to i16
  %245 = load i16, ptr %17, align 2
  %246 = zext i16 %245 to i32
  %247 = add i32 2, %246
  %248 = trunc i32 %247 to i16
  %249 = call i32 @dissect_icecandidates(ptr noundef %236, ptr noundef %237, ptr noundef %238, i16 noundef zeroext %244, i16 noundef zeroext %248)
  %250 = load i16, ptr %18, align 2
  %251 = zext i16 %250 to i32
  %252 = add i32 %251, %249
  %253 = trunc i32 %252 to i16
  store i16 %253, ptr %18, align 2
  %254 = load ptr, ptr %13, align 8
  %255 = load i32, ptr @hf_reload_sendupdate, align 4
  %256 = load ptr, ptr %7, align 8
  %257 = load i16, ptr %10, align 2
  %258 = zext i16 %257 to i32
  %259 = load i16, ptr %18, align 2
  %260 = zext i16 %259 to i32
  %261 = add i32 %258, %260
  %262 = call ptr @proto_tree_add_item(ptr noundef %254, i32 noundef %255, ptr noundef %256, i32 noundef %261, i32 noundef 1, i32 noundef 0)
  %263 = load i16, ptr %18, align 2
  %264 = zext i16 %263 to i32
  %265 = add i32 %264, 1
  %266 = trunc i32 %265 to i16
  store i16 %266, ptr %18, align 2
  %267 = load i16, ptr %18, align 2
  %268 = zext i16 %267 to i32
  store i32 %268, ptr %6, align 4
  store i32 1, ptr %19, align 4
  br label %269

269:                                              ; preds = %173, %159, %119, %79, %39
  call void @llvm.lifetime.end.p0(i64 2, ptr %18) #8
  call void @llvm.lifetime.end.p0(i64 2, ptr %17) #8
  call void @llvm.lifetime.end.p0(i64 1, ptr %16) #8
  call void @llvm.lifetime.end.p0(i64 1, ptr %15) #8
  call void @llvm.lifetime.end.p0(i64 1, ptr %14) #8
  call void @llvm.lifetime.end.p0(i64 8, ptr %13) #8
  call void @llvm.lifetime.end.p0(i64 8, ptr %12) #8
  %270 = load i32, ptr %6, align 4
  ret i32 %270
}