; Function Attrs: null_pointer_is_valid sspstrong uwtable
define internal fastcc void @dissect_attachreqans(ptr noundef %0, ptr noundef %1, ptr noundef %2, i16 noundef zeroext %3, i16 noundef zeroext %4) unnamed_addr #0 {
  %6 = zext i16 %3 to i32
  %7 = tail call zeroext i8 @tvb_get_uint8(ptr noundef %0, i32 noundef %6)
  %8 = zext i16 %4 to i32
  %9 = zext i8 %7 to i16
  %.not = icmp ugt i16 %4, %9
  br i1 %.not, label %14, label %10

10:                                               ; preds = %5
  %11 = load i32, ptr @hf_reload_attachreqans, align 4
  %12 = tail call ptr @proto_tree_add_item(ptr noundef %2, i32 noundef %11, ptr noundef %0, i32 noundef %6, i32 noundef %8, i32 noundef 0)
  %13 = tail call ptr (ptr, ptr, ptr, ptr, ...) @expert_add_info_format(ptr noundef %1, ptr noundef %12, ptr noundef nonnull @ei_reload_truncated_field, ptr noundef nonnull @.str.659)
  br label %74

14:                                               ; preds = %5
  %15 = zext i8 %7 to i32
  %16 = add nuw nsw i32 %6, 1
  %17 = add nuw nsw i32 %16, %15
  %18 = tail call zeroext i8 @tvb_get_uint8(ptr noundef %0, i32 noundef %17)
  %19 = add nuw nsw i32 %15, 2
  %20 = zext i8 %18 to i32
  %21 = add nuw nsw i32 %19, %20
  %22 = icmp samesign ugt i32 %21, %8
  br i1 %22, label %23, label %27

23:                                               ; preds = %14
  %24 = load i32, ptr @hf_reload_attachreqans, align 4
  %25 = tail call ptr @proto_tree_add_item(ptr noundef %2, i32 noundef %24, ptr noundef %0, i32 noundef %6, i32 noundef %8, i32 noundef 0)
  %26 = tail call ptr (ptr, ptr, ptr, ptr, ...) @expert_add_info_format(ptr noundef %1, ptr noundef %25, ptr noundef nonnull @ei_reload_truncated_field, ptr noundef nonnull @.str.659)
  br label %74

27:                                               ; preds = %14
  %28 = add nuw nsw i32 %21, %6
  %29 = tail call zeroext i8 @tvb_get_uint8(ptr noundef %0, i32 noundef %28)
  %30 = add nuw nsw i32 %21, 1
  %31 = zext i8 %29 to i32
  %32 = add nuw nsw i32 %30, %31
  %33 = icmp samesign ugt i32 %32, %8
  br i1 %33, label %34, label %38

34:                                               ; preds = %27
  %35 = load i32, ptr @hf_reload_attachreqans, align 4
  %36 = tail call ptr @proto_tree_add_item(ptr noundef %2, i32 noundef %35, ptr noundef %0, i32 noundef %6, i32 noundef %8, i32 noundef 0)
  %37 = tail call ptr (ptr, ptr, ptr, ptr, ...) @expert_add_info_format(ptr noundef %1, ptr noundef %36, ptr noundef nonnull @ei_reload_truncated_field, ptr noundef nonnull @.str.659)
  br label %74

38:                                               ; preds = %27
  %39 = add nuw nsw i32 %32, %6
  %40 = tail call zeroext i16 @tvb_get_ntohs(ptr noundef %0, i32 noundef %39)
  %41 = add nuw nsw i32 %32, 2
  %42 = zext i16 %40 to i32
  %43 = add nuw nsw i32 %41, %42
  %44 = icmp samesign ugt i32 %43, %8
  %45 = load i32, ptr @hf_reload_attachreqans, align 4
  br i1 %44, label %46, label %49

46:                                               ; preds = %38
  %47 = tail call ptr @proto_tree_add_item(ptr noundef %2, i32 noundef %45, ptr noundef %0, i32 noundef %6, i32 noundef %8, i32 noundef 0)
  %48 = tail call ptr (ptr, ptr, ptr, ptr, ...) @expert_add_info_format(ptr noundef %1, ptr noundef %47, ptr noundef nonnull @ei_reload_truncated_field, ptr noundef nonnull @.str.659)
  br label %74

49:                                               ; preds = %38
  %50 = tail call ptr @proto_tree_add_item(ptr noundef %2, i32 noundef %45, ptr noundef %0, i32 noundef %6, i32 noundef %43, i32 noundef 0)
  %51 = load i32, ptr @ett_reload_attachreqans, align 4
  %52 = tail call ptr @proto_item_add_subtree(ptr noundef %50, i32 noundef %51)
  %53 = load i32, ptr @hf_reload_ufrag, align 4
  %54 = tail call fastcc i32 @dissect_opaque_string_or_data(ptr noundef %0, ptr noundef %1, ptr noundef %52, i32 noundef %53, i16 noundef zeroext %3, i16 noundef zeroext 1, i32 noundef -1, i1 noundef zeroext true)
  %55 = load i32, ptr @hf_reload_password, align 4
  %56 = trunc i32 %54 to i16
  %57 = add i16 %3, %56
  %58 = tail call fastcc i32 @dissect_opaque_string_or_data(ptr noundef %0, ptr noundef %1, ptr noundef %52, i32 noundef %55, i16 noundef zeroext %57, i16 noundef zeroext 1, i32 noundef -1, i1 noundef zeroext true)
  %59 = add i32 %58, %54
  %60 = load i32, ptr @hf_reload_role, align 4
  %61 = trunc i32 %59 to i16
  %62 = add i16 %3, %61
  %63 = tail call fastcc i32 @dissect_opaque_string_or_data(ptr noundef %0, ptr noundef %1, ptr noundef %52, i32 noundef %60, i16 noundef zeroext %62, i16 noundef zeroext 1, i32 noundef -1, i1 noundef zeroext true)
  %64 = add i32 %63, %59
  %65 = trunc i32 %64 to i16
  %66 = add i16 %3, %65
  %67 = add i16 %40, 2
  %68 = tail call fastcc i32 @dissect_icecandidates(ptr noundef %0, ptr noundef %1, ptr noundef %52, i16 noundef zeroext %66, i16 noundef zeroext %67)
  %69 = add i32 %64, %68
  %70 = load i32, ptr @hf_reload_sendupdate, align 4
  %71 = and i32 %69, 65535
  %72 = add nuw nsw i32 %71, %6
  %73 = tail call ptr @proto_tree_add_item(ptr noundef %52, i32 noundef %70, ptr noundef %0, i32 noundef %72, i32 noundef 1, i32 noundef 0)
  br label %74

74:                                               ; preds = %49, %46, %34, %23, %10
  ret void
}